target datalayout = "e-m:e-p270:32:32-p271:32:32-p272:64:64-i64:64-i128:128-f80:128-n8:16:32:64-S128"
target triple = "x86_64-pc-linux-gnu"

%"class.igl::opengl::ViewerData" = type { %"class.Eigen::Matrix.3", %"class.Eigen::Matrix.12", %"class.Eigen::Matrix.3", %"class.Eigen::Matrix.3", %"class.Eigen::Matrix.3", %"class.Eigen::Matrix.3", %"class.Eigen::Matrix.3", %"class.Eigen::Matrix.3", %"class.Eigen::Matrix.3", %"class.Eigen::Matrix.3", %"class.Eigen::Matrix.3", %"class.Eigen::Matrix.12", %"class.Eigen::Matrix.21", %"class.Eigen::Matrix.21", %"class.Eigen::Matrix.21", %"class.Eigen::Matrix.21", %"class.Eigen::Matrix.3", %"class.Eigen::Matrix.3", %"class.Eigen::Matrix.3", %"class.Eigen::Matrix.3", %"class.Eigen::Matrix.3", %"class.std::vector", %"class.std::vector", %"class.std::vector", i32, i8, i8, i8, i32, i32, i32, i32, i32, i32, i32, i32, i32, i32, float, float, float, %"class.Eigen::Matrix.30", %"class.Eigen::Matrix.30", float, i32, [4 x i8], %"class.igl::opengl::MeshGL" }
%"class.Eigen::Matrix.12" = type { %"class.Eigen::PlainObjectBase.13" }
%"class.Eigen::PlainObjectBase.13" = type { %"class.Eigen::DenseStorage.20" }
%"class.Eigen::DenseStorage.20" = type { ptr, i64, i64 }
%"class.Eigen::Matrix.21" = type { %"class.Eigen::PlainObjectBase.22" }
%"class.Eigen::PlainObjectBase.22" = type { %"class.Eigen::DenseStorage.29" }
%"class.Eigen::DenseStorage.29" = type { ptr, i64, i64 }
%"class.Eigen::Matrix.3" = type { %"class.Eigen::PlainObjectBase.4" }
%"class.Eigen::PlainObjectBase.4" = type { %"class.Eigen::DenseStorage.11" }
%"class.Eigen::DenseStorage.11" = type { ptr, i64, i64 }
%"class.std::vector" = type { %"struct.std::_Vector_base" }
%"struct.std::_Vector_base" = type { %"struct.std::_Vector_base<std::__cxx11::basic_string<char>, std::allocator<std::__cxx11::basic_string<char>>>::_Vector_impl" }
%"struct.std::_Vector_base<std::__cxx11::basic_string<char>, std::allocator<std::__cxx11::basic_string<char>>>::_Vector_impl" = type { %"struct.std::_Vector_base<std::__cxx11::basic_string<char>, std::allocator<std::__cxx11::basic_string<char>>>::_Vector_impl_data" }
%"struct.std::_Vector_base<std::__cxx11::basic_string<char>, std::allocator<std::__cxx11::basic_string<char>>>::_Vector_impl_data" = type { ptr, ptr, ptr }
%"class.Eigen::Matrix.30" = type { %"class.Eigen::PlainObjectBase.31" }
%"class.Eigen::PlainObjectBase.31" = type { %"class.Eigen::DenseStorage.38" }
%"class.Eigen::DenseStorage.38" = type { %"struct.Eigen::internal::plain_array.39" }
%"struct.Eigen::internal::plain_array.39" = type { [4 x float] }
%"class.igl::opengl::MeshGL" = type <{ i8, [3 x i8], i32, i32, i32, i32, i32, i32, i32, i32, i32, i32, i32, i32, i32, i32, i32, i32, i32, i32, i32, i32, i32, %"class.Eigen::Matrix.40", %"class.Eigen::Matrix.40", %"class.Eigen::Matrix.40", %"class.Eigen::Matrix.40", %"class.Eigen::Matrix.40", %"class.Eigen::Matrix.40", %"class.Eigen::Matrix.40", %"class.Eigen::Matrix.40", %"class.Eigen::Matrix.40", %"class.Eigen::Matrix.40", %"struct.igl::opengl::MeshGL::TextGL", %"struct.igl::opengl::MeshGL::TextGL", %"struct.igl::opengl::MeshGL::TextGL", i32, i32, i32, i32, i32, [4 x i8], %"class.Eigen::Matrix.58", %"class.Eigen::Matrix.49", %"class.Eigen::Matrix.49", %"class.Eigen::Matrix.49", i32, [4 x i8] }>
%"class.Eigen::Matrix.40" = type { %"class.Eigen::PlainObjectBase.41" }
%"class.Eigen::PlainObjectBase.41" = type { %"class.Eigen::DenseStorage.48" }
%"class.Eigen::DenseStorage.48" = type { ptr, i64, i64 }
%"struct.igl::opengl::MeshGL::TextGL" = type { i32, i32, i32, i32, i32, i32, %"class.Eigen::Matrix.40", %"class.Eigen::Matrix.40", %"class.Eigen::Matrix.40", %"class.Eigen::Matrix.49" }
%"class.Eigen::Matrix.58" = type { %"class.Eigen::PlainObjectBase.59" }
%"class.Eigen::PlainObjectBase.59" = type { %"class.Eigen::DenseStorage.66" }
%"class.Eigen::DenseStorage.66" = type { ptr, i64 }
%"class.Eigen::Matrix.49" = type { %"class.Eigen::PlainObjectBase.50" }
%"class.Eigen::PlainObjectBase.50" = type { %"class.Eigen::DenseStorage.57" }
%"class.Eigen::DenseStorage.57" = type { ptr, i64, i64 }

; Function Attrs: mustprogress nounwind uwtable
define dso_local void @_ZN3igl6opengl10ViewerData14set_face_basedEb(ptr noundef nonnull align 8 dereferenceable(1488) %0, i1 noundef zeroext %1) #1 align 2 {
  %3 = alloca ptr, align 8
  %4 = alloca i8, align 1
  store ptr %0, ptr %3, align 8, !tbaa !21
  %5 = zext i1 %1 to i8
  store i8 %5, ptr %4, align 1, !tbaa !99
  %6 = load ptr, ptr %3, align 8
  %7 = getelementptr inbounds nuw %"class.igl::opengl::ViewerData", ptr %6, i32 0, i32 25
  %8 = load i8, ptr %7, align 4, !tbaa !60, !range !100, !noundef !101
  %9 = trunc i8 %8 to i1
  %10 = zext i1 %9 to i32
  %11 = load i8, ptr %4, align 1, !tbaa !99, !range !100, !noundef !101
  %12 = trunc i8 %11 to i1
  %13 = zext i1 %12 to i32
  %14 = icmp ne i32 %10, %13
  br i1 %14, label %15, label %21

15:                                               ; preds = %2
  %16 = load i8, ptr %4, align 1, !tbaa !99, !range !100, !noundef !101
  %17 = trunc i8 %16 to i1
  %18 = getelementptr inbounds nuw %"class.igl::opengl::ViewerData", ptr %6, i32 0, i32 25
  %19 = zext i1 %17 to i8
  store i8 %19, ptr %18, align 4, !tbaa !60
  %20 = getelementptr inbounds nuw %"class.igl::opengl::ViewerData", ptr %6, i32 0, i32 24
  store i32 65535, ptr %20, align 8, !tbaa !23
  br label %21

21:                                               ; preds = %15, %2
  ret void
}