; Function Attrs: mustprogress nofree norecurse nosync nounwind willreturn memory(argmem: readwrite) uwtable
define dso_local void @_ZN3igl6opengl10ViewerData14set_face_basedEb(ptr noundef nonnull align 8 captures(none) dereferenceable(1488) %0, i1 noundef zeroext %1) local_unnamed_addr #4 align 2 {
  %3 = getelementptr inbounds nuw i8, ptr %0, i64 580
  %4 = load i8, ptr %3, align 4, !tbaa !46, !range !77, !noundef !78
  %5 = zext i1 %1 to i8
  %.not = icmp eq i8 %4, %5
  br i1 %.not, label %8, label %6

6:                                                ; preds = %2
  store i8 %5, ptr %3, align 4, !tbaa !46
  %7 = getelementptr inbounds nuw i8, ptr %0, i64 576
  store i32 65535, ptr %7, align 8, !tbaa !4
  br label %8

8:                                                ; preds = %6, %2
  ret void
}